; Function Attrs: null_pointer_is_valid sspstrong uwtable
define ptr @find_conversation_deinterlacer_pinfo(ptr noundef readonly captures(none) %0) local_unnamed_addr #0 {
  %2 = load i32, ptr getelementptr inbounds nuw (i8, ptr @prefs, i64 392), align 8
  %3 = icmp sgt i32 %2, 0
  br i1 %3, label %4, label %33

4:                                                ; preds = %1
  %5 = and i32 %2, 2
  %.not = icmp eq i32 %5, 0
  br i1 %.not, label %21, label %6

6:                                                ; preds = %4
  %7 = getelementptr inbounds nuw i8, ptr %0, i64 96
  %8 = load ptr, ptr %7, align 8
  %9 = getelementptr inbounds nuw i8, ptr %8, i64 4
  %10 = load i32, ptr %9, align 4
  %11 = and i32 %10, 4
  %.not19 = icmp eq i32 %11, 0
  br i1 %.not19, label %21, label %12

12:                                               ; preds = %6
  %13 = and i32 %2, 8
  %.not22 = icmp eq i32 %13, 0
  br i1 %.not22, label %17, label %14

14:                                               ; preds = %12
  %15 = getelementptr inbounds nuw i8, ptr %0, i64 256
  %16 = load i32, ptr %15, align 8
  %.not23 = icmp eq i32 %16, 0
  br i1 %.not23, label %17, label %18

17:                                               ; preds = %14, %12
  br label %18

18:                                               ; preds = %14, %17
  %.013 = phi i32 [ 44, %17 ], [ 45, %14 ]
  %.0 = phi i32 [ 0, %17 ], [ %16, %14 ]
  %19 = getelementptr inbounds nuw i8, ptr %8, i64 76
  %20 = load i32, ptr %19, align 4
  br label %27

21:                                               ; preds = %6, %4
  %22 = and i32 %2, 8
  %.not20 = icmp eq i32 %22, 0
  br i1 %.not20, label %26, label %23

23:                                               ; preds = %21
  %24 = getelementptr inbounds nuw i8, ptr %0, i64 256
  %25 = load i32, ptr %24, align 8
  %.not21 = icmp eq i32 %25, 0
  br i1 %.not21, label %26, label %27

26:                                               ; preds = %23, %21
  br label %27

27:                                               ; preds = %23, %26, %18
  %.114 = phi i32 [ %.013, %18 ], [ 42, %26 ], [ 43, %23 ]
  %.012 = phi i32 [ %20, %18 ], [ 0, %26 ], [ 0, %23 ]
  %.1 = phi i32 [ %.0, %18 ], [ 0, %26 ], [ %25, %23 ]
  %28 = getelementptr inbounds nuw i8, ptr %0, i64 20
  %29 = load i32, ptr %28, align 4
  %30 = getelementptr inbounds nuw i8, ptr %0, i64 112
  %31 = getelementptr inbounds nuw i8, ptr %0, i64 136
  %32 = tail call ptr @find_conversation_deinterlacer(i32 noundef %29, ptr noundef nonnull %30, ptr noundef nonnull %31, i32 noundef %.114, i32 noundef %.012, i32 noundef %.1, i32 noundef 0)
  br label %33

33:                                               ; preds = %27, %1
  %.015 = phi ptr [ %32, %27 ], [ null, %1 ]
  ret ptr %.015
}